(dp0
S'dcdfile'
p1
S'$outname.dcd'
p2
sS'conskcol'
p3
S'O'
p4
sS'usesettle'
p5
S'on'
p6
sS'langevinpistondecay'
p7
S'50'
p8
sS'rigidbonds'
p9
S'all'
p10
sS'fullelectfrequency'
p11
S'1'
p12
sS'pmegridspacing'
p13
S'1.0'
p14
sS'parameters'
p15
S'CHARMM_parameter_file'
p16
sS'coordinates'
p17
S''
p18
sS'ambercoor'
p19
S'../building/holo.rst7'
p20
sS'restartname'
p21
S'$outname.restart'
p22
sS'fixedatomsfile'
p23
g18
sS'langevinpistonperiod'
p24
S'100'
p25
sS'forcedcdfreq'
p26
g18
sS'restartfreq'
p27
I10000
sS'dcdunitcell'
p28
g18
sS'bincoordinates'
p29
S'$inpname.restart.coor'
p30
sS'paratypexplor'
p31
g6
sS'scnb'
p32
S'2.0'
p33
sS'useflexiblecell'
p34
S'no'
p35
sS'velocities'
p36
g18
sS'xstfreq'
p37
I10000
sS'extendedsystem'
p38
S'$inpname.restart.xsc'
p39
sS'langevinfile'
p40
g18
sS'restartsave'
p41
g35
sS'langevinpistontarget'
p42
S'1.01325'
p43
sS'fixedatoms'
p44
S'off'
p45
sS'constraints'
p46
g18
sS'langevintemp'
p47
S'298.0'
p48
sS'binaryrestart'
p49
S'yes'
p50
sS'xstfile'
p51
S'$outname.xst'
p52
sS'forcedcdfile'
p53
g18
sS'pme'
p54
g50
sS'langevinpistontemp'
p55
S'300'
p56
sS'binaryoutput'
p57
g50
sS'gromacs'
p58
g45
sS'useconstantarea'
p59
g35
sS'stepspercycle'
p60
S'10'
p61
sS'langevin'
p62
g6
sS'langevinpiston'
p63
g35
sS'cwd'
p64
g18
sS'wrapnearest'
p65
g6
sS'outputenergies'
p66
I10000
sS'minimization'
p67
g45
sS'usegrouppressure'
p68
g35
sS'base'
p69
S'namd input'
p70
sS'fixedatomscol'
p71
g18
sS'outputmomenta'
p72
g18
sS'langevinhydrogen'
p73
g35
sS'caption'
p74
S'SEEKR ensemble equilibration'
p75
sS'amber'
p76
g50
sS'cutoff'
p77
S'8'
p78
sS'timestep'
p79
g33
sS'rigiditerations'
p80
g25
sS'wrapwater'
p81
g6
sS'outputtiming'
p82
I10000
sS'rigidtolerance'
p83
S'1e-8'
p84
sS'temperature'
p85
F298.0
sS'zeromomentum'
p86
g6
sS'colvarsscript'
p87
g18
sS'conskfile'
p88
S'restrain_backbone_ref.pdb'
p89
sS'paratypecharmm'
p90
g45
sS'veldcdfile'
p91
S'${outname}vel.dcd'
p92
sS'tclforcesscript'
p93
g18
sS'watermodel'
p94
g18
sS'binvelocities'
p95
S'$inpname.restart.vel'
p96
sS'inpdir'
p97
g18
sS'readexclusions'
p98
g50
sS'consref'
p99
g89
sS'numsteps'
p100
I100000000
sS'constraintscaling'
p101
g14
sS'cellorigin'
p102
g18
sS'pmegridsizez'
p103
g18
sS'pmegridsizey'
p104
g18
sS'pmegridsizex'
p105
g18
sS'margin'
p106
S'0.0'
p107
sS'grotopfile'
p108
g18
sS'outputname'
p109
S'dummy'
p110
sS'ljcorrection'
p111
g6
sS'veldcdfreq'
p112
I10000
sS'colvarsconfig'
p113
S'colvar.script'
p114
sS'exclude'
p115
S'scaled1-4'
p116
sS'inpfilename'
p117
S'ens_equil_0_2'
p118
sS'cellbasisvector1'
p119
g18
sS'langevindamping'
p120
S'5'
p121
sS'cellbasisvector3'
p122
g18
sS'cellbasisvector2'
p123
g18
sS'tclforces'
p124
g45
sS'outfilename'
p125
S'ens_equil_0_3'
p126
sS'grocoorfile'
p127
g18
sS'wrapall'
p128
g45
sS'_1_4scaling'
p129
S'0.833333'
p130
sS'switching'
p131
g45
sS'pairlistdist'
p132
S'11'
p133
sS'mergecrossterms'
p134
g18
sS'colvars'
p135
g6
sS'nonbondedfreq'
p136
S'1'
p137
sS'dcdfreq'
p138
I10000
sS'switchdist'
p139
g18
sS'parmfile'
p140
S'../building/holo.parm7'
p141
sS'date'
p142
S'2018-02-12'
p143
sS'structure'
p144
g18
sS'outdir'
p145
g18
sS'outputpressure'
p146
g18
sS'langevincol'
p147
S'O'
p148
sS'minimize'
p149
S'5000'
p150
sS'firsttimestep'
p151
S'98700000'
p152
s.